target datalayout = "e-m:e-p270:32:32-p271:32:32-p272:64:64-i64:64-i128:128-f80:128-n8:16:32:64-S128"
target triple = "x86_64-unknown-linux-gnu"

%"class.QuantLib::Array" = type { %"class.std::unique_ptr", i64 }
%"class.std::unique_ptr" = type { %"struct.std::__uniq_ptr_data" }
%"struct.std::__uniq_ptr_data" = type { %"class.std::__uniq_ptr_impl" }
%"class.std::__uniq_ptr_impl" = type { %"class.std::tuple" }
%"class.std::tuple" = type { %"struct.std::_Tuple_impl" }
%"struct.std::_Tuple_impl" = type { %"struct.std::_Head_base.34" }
%"struct.std::_Head_base.34" = type { ptr }

; Function Attrs: mustprogress nounwind uwtable
define linkonce_odr noundef nonnull align 8 dereferenceable(8) ptr @_ZNSt10_Head_baseILm0EPdLb0EE7_M_headERKS1_(ptr noundef nonnull align 8 dereferenceable(8) %__b) #5 comdat align 2 {
entry:
  %__b.addr = alloca ptr, align 8
  store ptr %__b, ptr %__b.addr, align 8, !tbaa !3
  %0 = load ptr, ptr %__b.addr, align 8, !tbaa !3
  %_M_head_impl = getelementptr inbounds nuw %"struct.std::_Head_base.34", ptr %0, i32 0, i32 0
  ret ptr %_M_head_impl
}

; Function Attrs: mustprogress nounwind uwtable
define linkonce_odr noundef nonnull align 8 dereferenceable(8) ptr @_ZNSt11_Tuple_implILm0EJPdSt14default_deleteIA_dEEE7_M_headERKS4_(ptr noundef nonnull align 8 dereferenceable(8) %__t) #5 comdat align 2 {
entry:
  %__t.addr = alloca ptr, align 8
  store ptr %__t, ptr %__t.addr, align 8, !tbaa !3
  %0 = load ptr, ptr %__t.addr, align 8, !tbaa !3
  %call = call noundef nonnull align 8 dereferenceable(8) ptr @_ZNSt10_Head_baseILm0EPdLb0EE7_M_headERKS1_(ptr noundef nonnull align 8 dereferenceable(8) %0) #17
  ret ptr %call
}

; Function Attrs: mustprogress nounwind uwtable
define linkonce_odr noundef nonnull align 8 dereferenceable(8) ptr @_ZSt12__get_helperILm0EPdJSt14default_deleteIA_dEEERKT0_RKSt11_Tuple_implIXT_EJS4_DpT1_EE(ptr noundef nonnull align 8 dereferenceable(8) %__t) #5 comdat {
entry:
  %__t.addr = alloca ptr, align 8
  store ptr %__t, ptr %__t.addr, align 8, !tbaa !3
  %0 = load ptr, ptr %__t.addr, align 8, !tbaa !3
  %call = call noundef nonnull align 8 dereferenceable(8) ptr @_ZNSt11_Tuple_implILm0EJPdSt14default_deleteIA_dEEE7_M_headERKS4_(ptr noundef nonnull align 8 dereferenceable(8) %0) #17
  ret ptr %call
}

; Function Attrs: mustprogress nounwind uwtable
define linkonce_odr noundef nonnull align 8 dereferenceable(8) ptr @_ZSt3getILm0EJPdSt14default_deleteIA_dEEERKNSt13tuple_elementIXT_ESt5tupleIJDpT0_EEE4typeERKS8_(ptr noundef nonnull align 8 dereferenceable(8) %__t) #5 comdat {
entry:
  %__t.addr = alloca ptr, align 8
  store ptr %__t, ptr %__t.addr, align 8, !tbaa !3
  %0 = load ptr, ptr %__t.addr, align 8, !tbaa !3
  %call = call noundef nonnull align 8 dereferenceable(8) ptr @_ZSt12__get_helperILm0EPdJSt14default_deleteIA_dEEERKT0_RKSt11_Tuple_implIXT_EJS4_DpT1_EE(ptr noundef nonnull align 8 dereferenceable(8) %0) #17
  ret ptr %call
}

; Function Attrs: mustprogress nounwind uwtable
define linkonce_odr noundef ptr @_ZNKSt15__uniq_ptr_implIdSt14default_deleteIA_dEE6_M_ptrEv(ptr noundef nonnull align 8 dereferenceable(8) %this) #5 comdat align 2 {
entry:
  %this.addr = alloca ptr, align 8
  store ptr %this, ptr %this.addr, align 8, !tbaa !3
  %this1 = load ptr, ptr %this.addr, align 8
  %_M_t = getelementptr inbounds nuw %"class.std::__uniq_ptr_impl", ptr %this1, i32 0, i32 0
  %call = call noundef nonnull align 8 dereferenceable(8) ptr @_ZSt3getILm0EJPdSt14default_deleteIA_dEEERKNSt13tuple_elementIXT_ESt5tupleIJDpT0_EEE4typeERKS8_(ptr noundef nonnull align 8 dereferenceable(8) %_M_t) #17
  %0 = load ptr, ptr %call, align 8, !tbaa !3
  ret ptr %0
}

; Function Attrs: mustprogress nounwind uwtable
define linkonce_odr noundef ptr @_ZNKSt10unique_ptrIA_dSt14default_deleteIS0_EE3getEv(ptr noundef nonnull align 8 dereferenceable(8) %this) #5 comdat align 2 {
entry:
  %this.addr = alloca ptr, align 8
  store ptr %this, ptr %this.addr, align 8, !tbaa !3
  %this1 = load ptr, ptr %this.addr, align 8
  %_M_t = getelementptr inbounds nuw %"class.std::unique_ptr", ptr %this1, i32 0, i32 0
  %call = call noundef ptr @_ZNKSt15__uniq_ptr_implIdSt14default_deleteIA_dEE6_M_ptrEv(ptr noundef nonnull align 8 dereferenceable(8) %_M_t) #17
  ret ptr %call
}

; Function Attrs: mustprogress nounwind uwtable
define linkonce_odr noundef double @_ZNSt14numeric_limitsIdE7epsilonEv() #5 comdat align 2 {
entry:
  ret double 0x3CB0000000000000
}

; Function Attrs: inlinehint mustprogress nounwind uwtable
define linkonce_odr noundef double @_ZNK8QuantLib5ArrayixEm(ptr noundef nonnull align 8 dereferenceable(16) %this, i64 noundef %i) #7 comdat align 2 {
entry:
  %this.addr = alloca ptr, align 8
  %i.addr = alloca i64, align 8
  store ptr %this, ptr %this.addr, align 8, !tbaa !3
  store i64 %i, ptr %i.addr, align 8, !tbaa !13
  %this1 = load ptr, ptr %this.addr, align 8
  %data_ = getelementptr inbounds nuw %"class.QuantLib::Array", ptr %this1, i32 0, i32 0
  %call = call noundef ptr @_ZNKSt10unique_ptrIA_dSt14default_deleteIS0_EE3getEv(ptr noundef nonnull align 8 dereferenceable(8) %data_) #17
  %0 = load i64, ptr %i.addr, align 8, !tbaa !13
  %arrayidx = getelementptr inbounds nuw double, ptr %call, i64 %0
  %1 = load double, ptr %arrayidx, align 8, !tbaa !11
  ret double %1
}

; Function Attrs: mustprogress uwtable
define noundef double @_ZNK8QuantLib15SvenssonFitting16discountFunctionERKNS_5ArrayEd(ptr noundef nonnull align 8 dereferenceable(176) %this, ptr noundef nonnull align 8 dereferenceable(16) %x, double noundef %t) unnamed_addr #3 align 2 {
entry:
  %this.addr = alloca ptr, align 8
  %x.addr = alloca ptr, align 8
  %t.addr = alloca double, align 8
  %kappa = alloca double, align 8
  %kappa_1 = alloca double, align 8
  %zeroRate = alloca double, align 8
  %d = alloca double, align 8
  store ptr %this, ptr %this.addr, align 8, !tbaa !3
  store ptr %x, ptr %x.addr, align 8, !tbaa !3
  store double %t, ptr %t.addr, align 8, !tbaa !11
  %this1 = load ptr, ptr %this.addr, align 8
  call void @llvm.lifetime.start.p0(i64 8, ptr %kappa) #17
  %0 = load ptr, ptr %x.addr, align 8, !tbaa !3
  %vtable = load ptr, ptr %this1, align 8, !tbaa !7
  %vfn = getelementptr inbounds ptr, ptr %vtable, i64 2
  %1 = load ptr, ptr %vfn, align 8
  %call = call noundef i64 %1(ptr noundef nonnull align 8 dereferenceable(176) %this1)
  %sub = sub i64 %call, 2
  %call2 = call noundef double @_ZNK8QuantLib5ArrayixEm(ptr noundef nonnull align 8 dereferenceable(16) %0, i64 noundef %sub)
  store double %call2, ptr %kappa, align 8, !tbaa !11
  call void @llvm.lifetime.start.p0(i64 8, ptr %kappa_1) #17
  %2 = load ptr, ptr %x.addr, align 8, !tbaa !3
  %vtable3 = load ptr, ptr %this1, align 8, !tbaa !7
  %vfn4 = getelementptr inbounds ptr, ptr %vtable3, i64 2
  %3 = load ptr, ptr %vfn4, align 8
  %call5 = call noundef i64 %3(ptr noundef nonnull align 8 dereferenceable(176) %this1)
  %sub6 = sub i64 %call5, 1
  %call7 = call noundef double @_ZNK8QuantLib5ArrayixEm(ptr noundef nonnull align 8 dereferenceable(16) %2, i64 noundef %sub6)
  store double %call7, ptr %kappa_1, align 8, !tbaa !11
  call void @llvm.lifetime.start.p0(i64 8, ptr %zeroRate) #17
  %4 = load ptr, ptr %x.addr, align 8, !tbaa !3
  %call8 = call noundef double @_ZNK8QuantLib5ArrayixEm(ptr noundef nonnull align 8 dereferenceable(16) %4, i64 noundef 0)
  %5 = load ptr, ptr %x.addr, align 8, !tbaa !3
  %call9 = call noundef double @_ZNK8QuantLib5ArrayixEm(ptr noundef nonnull align 8 dereferenceable(16) %5, i64 noundef 1)
  %6 = load ptr, ptr %x.addr, align 8, !tbaa !3
  %call10 = call noundef double @_ZNK8QuantLib5ArrayixEm(ptr noundef nonnull align 8 dereferenceable(16) %6, i64 noundef 2)
  %add = fadd double %call9, %call10
  %7 = load double, ptr %kappa, align 8, !tbaa !11
  %fneg = fneg double %7
  %8 = load double, ptr %t.addr, align 8, !tbaa !11
  %mul = fmul double %fneg, %8
  %call11 = call double @exp(double noundef %mul) #17, !tbaa !38
  %sub12 = fsub double 1.000000e+00, %call11
  %mul13 = fmul double %add, %sub12
  %9 = load double, ptr %kappa, align 8, !tbaa !11
  %call14 = call noundef double @_ZNSt14numeric_limitsIdE7epsilonEv() #17
  %add15 = fadd double %9, %call14
  %10 = load double, ptr %t.addr, align 8, !tbaa !11
  %call16 = call noundef double @_ZNSt14numeric_limitsIdE7epsilonEv() #17
  %add17 = fadd double %10, %call16
  %mul18 = fmul double %add15, %add17
  %div = fdiv double %mul13, %mul18
  %add19 = fadd double %call8, %div
  %11 = load ptr, ptr %x.addr, align 8, !tbaa !3
  %call20 = call noundef double @_ZNK8QuantLib5ArrayixEm(ptr noundef nonnull align 8 dereferenceable(16) %11, i64 noundef 2)
  %12 = load double, ptr %kappa, align 8, !tbaa !11
  %fneg21 = fneg double %12
  %13 = load double, ptr %t.addr, align 8, !tbaa !11
  %mul22 = fmul double %fneg21, %13
  %call23 = call double @exp(double noundef %mul22) #17, !tbaa !38
  %neg = fneg double %call20
  %14 = call double @llvm.fmuladd.f64(double %neg, double %call23, double %add19)
  %15 = load ptr, ptr %x.addr, align 8, !tbaa !3
  %call25 = call noundef double @_ZNK8QuantLib5ArrayixEm(ptr noundef nonnull align 8 dereferenceable(16) %15, i64 noundef 3)
  %16 = load double, ptr %kappa_1, align 8, !tbaa !11
  %fneg26 = fneg double %16
  %17 = load double, ptr %t.addr, align 8, !tbaa !11
  %mul27 = fmul double %fneg26, %17
  %call28 = call double @exp(double noundef %mul27) #17, !tbaa !38
  %sub29 = fsub double 1.000000e+00, %call28
  %18 = load double, ptr %kappa_1, align 8, !tbaa !11
  %call30 = call noundef double @_ZNSt14numeric_limitsIdE7epsilonEv() #17
  %add31 = fadd double %18, %call30
  %19 = load double, ptr %t.addr, align 8, !tbaa !11
  %call32 = call noundef double @_ZNSt14numeric_limitsIdE7epsilonEv() #17
  %add33 = fadd double %19, %call32
  %mul34 = fmul double %add31, %add33
  %div35 = fdiv double %sub29, %mul34
  %20 = load double, ptr %kappa_1, align 8, !tbaa !11
  %fneg36 = fneg double %20
  %21 = load double, ptr %t.addr, align 8, !tbaa !11
  %mul37 = fmul double %fneg36, %21
  %call38 = call double @exp(double noundef %mul37) #17, !tbaa !38
  %sub39 = fsub double %div35, %call38
  %22 = call double @llvm.fmuladd.f64(double %call25, double %sub39, double %14)
  store double %22, ptr %zeroRate, align 8, !tbaa !11
  call void @llvm.lifetime.start.p0(i64 8, ptr %d) #17
  %23 = load double, ptr %zeroRate, align 8, !tbaa !11
  %fneg41 = fneg double %23
  %24 = load double, ptr %t.addr, align 8, !tbaa !11
  %mul42 = fmul double %fneg41, %24
  %call43 = call double @exp(double noundef %mul42) #17, !tbaa !38
  store double %call43, ptr %d, align 8, !tbaa !11
  %25 = load double, ptr %d, align 8, !tbaa !11
  call void @llvm.lifetime.end.p0(i64 8, ptr %d) #17
  call void @llvm.lifetime.end.p0(i64 8, ptr %zeroRate) #17
  call void @llvm.lifetime.end.p0(i64 8, ptr %kappa_1) #17
  call void @llvm.lifetime.end.p0(i64 8, ptr %kappa) #17
  ret double %25
}