; Function Attrs: mustprogress uwtable
define noundef double @_ZNK8QuantLib15SvenssonFitting16discountFunctionERKNS_5ArrayEd(ptr noundef nonnull align 8 dereferenceable(176) %this, ptr nocapture noundef nonnull readonly align 8 dereferenceable(16) %x, double noundef %t) unnamed_addr #3 align 2 {
entry:
  %vtable = load ptr, ptr %this, align 8, !tbaa !14
  %vfn = getelementptr inbounds i8, ptr %vtable, i64 16
  %0 = load ptr, ptr %vfn, align 8
  %call = tail call noundef i64 %0(ptr noundef nonnull align 8 dereferenceable(176) %this)
  %1 = load ptr, ptr %x, align 8, !tbaa !28
  %2 = getelementptr double, ptr %1, i64 %call
  %arrayidx.i = getelementptr i8, ptr %2, i64 -16
  %3 = load double, ptr %arrayidx.i, align 8, !tbaa !49
  %vtable3 = load ptr, ptr %this, align 8, !tbaa !14
  %vfn4 = getelementptr inbounds i8, ptr %vtable3, i64 16
  %4 = load ptr, ptr %vfn4, align 8
  %call5 = tail call noundef i64 %4(ptr noundef nonnull align 8 dereferenceable(176) %this)
  %5 = load ptr, ptr %x, align 8, !tbaa !28
  %6 = getelementptr double, ptr %5, i64 %call5
  %arrayidx.i17 = getelementptr i8, ptr %6, i64 -8
  %7 = load double, ptr %arrayidx.i17, align 8, !tbaa !49
  %8 = load double, ptr %5, align 8, !tbaa !49
  %arrayidx.i19 = getelementptr inbounds nuw i8, ptr %5, i64 8
  %9 = load double, ptr %arrayidx.i19, align 8, !tbaa !49
  %arrayidx.i20 = getelementptr inbounds nuw i8, ptr %5, i64 16
  %10 = load double, ptr %arrayidx.i20, align 8, !tbaa !49
  %add = fadd double %9, %10
  %fneg = fneg double %3
  %mul = fmul double %t, %fneg
  %call11 = tail call double @exp(double noundef %mul) #22, !tbaa !50
  %sub12 = fsub double 1.000000e+00, %call11
  %mul13 = fmul double %add, %sub12
  %add15 = fadd double %3, 0x3CB0000000000000
  %add17 = fadd double %t, 0x3CB0000000000000
  %mul18 = fmul double %add17, %add15
  %div = fdiv double %mul13, %mul18
  %add19 = fadd double %8, %div
  %call23 = tail call double @exp(double noundef %mul) #22, !tbaa !50
  %neg = fneg double %10
  %11 = tail call double @llvm.fmuladd.f64(double %neg, double %call23, double %add19)
  %arrayidx.i22 = getelementptr inbounds nuw i8, ptr %5, i64 24
  %12 = load double, ptr %arrayidx.i22, align 8, !tbaa !49
  %fneg26 = fneg double %7
  %mul27 = fmul double %t, %fneg26
  %call28 = tail call double @exp(double noundef %mul27) #22, !tbaa !50
  %sub29 = fsub double 1.000000e+00, %call28
  %add31 = fadd double %7, 0x3CB0000000000000
  %mul34 = fmul double %add17, %add31
  %div35 = fdiv double %sub29, %mul34
  %call38 = tail call double @exp(double noundef %mul27) #22, !tbaa !50
  %sub39 = fsub double %div35, %call38
  %13 = tail call double @llvm.fmuladd.f64(double %12, double %sub39, double %11)
  %fneg41 = fneg double %13
  %mul42 = fmul double %t, %fneg41
  %call43 = tail call double @exp(double noundef %mul42) #22, !tbaa !50
  ret double %call43
}